(lp1
(iparticula
particula
p2
(dp3
S'totalComandosSucedidos'
p4
I0
sS'cromossomo'
p5
(lp6
S'atacar'
p7
aS'copiar'
p8
aS'apagar'
p9
ag7
ag8
ag9
asS'totalComandos'
p10
I0
sba(iparticula
particula
p11
(dp12
g4
I0
sg5
(lp13
g7
ag8
ag9
ag7
ag8
ag9
asg10
I0
sba(iparticula
particula
p14
(dp15
g4
I0
sg5
(lp16
S'hospedar'
p17
ag7
ag8
ag9
ag7
ag8
aS'transferir'
p18
ag9
ag17
asg10
I0
sba(iparticula
particula
p19
(dp20
g4
I0
sg5
(lp21
g17
ag7
ag8
ag9
ag7
ag8
ag18
ag9
ag17
asg10
I0
sba(iparticula
particula
p22
(dp23
g4
I0
sg5
(lp24
g7
ag8
ag18
ag9
ag17
ag17
ag7
ag8
ag9
asg10
I0
sba.