(lp1
(iparticula
particula
p2
(dp3
S'totalComandosSucedidos'
p4
I3
sS'cromossomo'
p5
(lp6
S'hospedar'
p7
aS'atacar'
p8
aS'copiar'
p9
aS'apagar'
p10
asS'totalComandos'
p11
I4
sba(iparticula
particula
p12
(dp13
g4
I3
sg5
(lp14
g7
ag8
ag9
ag10
asg11
I4
sba(iparticula
particula
p15
(dp16
g4
I2
sg5
(lp17
g8
ag9
ag10
asg11
I3
sba(iparticula
particula
p18
(dp19
g4
I2
sg5
(lp20
g8
ag9
ag10
asg11
I3
sba(iparticula
particula
p21
(dp22
g4
I3
sg5
g14
sg11
I4
sba(iparticula
particula
p23
(dp24
g4
I2
sg5
g17
sg11
I3
sba(iparticula
particula
p25
(dp26
g4
I2
sg5
g20
sg11
I3
sba(iparticula
particula
p27
(dp28
g4
I3
sg5
g14
sg11
I4
sba(iparticula
particula
p29
(dp30
g4
I2
sg5
g17
sg11
I3
sba(iparticula
particula
p31
(dp32
g4
I2
sg5
g20
sg11
I3
sba(iparticula
particula
p33
(dp34
g4
I3
sg5
g14
sg11
I4
sba(iparticula
particula
p35
(dp36
g4
I2
sg5
g17
sg11
I3
sba(iparticula
particula
p37
(dp38
g4
I2
sg5
g20
sg11
I3
sba(iparticula
particula
p39
(dp40
g4
I3
sg5
g14
sg11
I4
sba.