(lp1
(iparticula
particula
p2
(dp3
S'totalComandosSucedidos'
p4
I0
sS'cromossomo'
p5
(lp6
S'hospedar'
p7
aS'atacar'
p8
aS'copiar'
p9
aS'apagar'
p10
ag8
ag9
ag10
asS'totalComandos'
p11
I0
sba(iparticula
particula
p12
(dp13
g4
I0
sg5
(lp14
g8
ag9
ag10
ag7
ag8
ag9
ag10
asg11
I0
sba(iparticula
particula
p15
(dp16
g4
I0
sg5
(lp17
g8
ag9
ag10
ag8
ag9
ag10
asg11
I0
sba(iparticula
particula
p18
(dp19
g4
I0
sg5
(lp20
g7
ag8
ag9
ag10
ag8
ag9
ag10
asg11
I0
sba(iparticula
particula
p21
(dp22
g4
I0
sg5
(lp23
g8
ag9
ag10
ag7
ag8
ag9
ag10
asg11
I0
sba(iparticula
particula
p24
(dp25
g4
I0
sg5
(lp26
g8
ag9
ag10
ag8
ag9
ag10
asg11
I0
sba(iparticula
particula
p27
(dp28
g4
I0
sg5
(lp29
g7
ag8
ag9
ag10
ag7
ag8
ag9
ag10
asg11
I0
sba.