(lp1
(iparticula
particula
p2
(dp3
S'totalComandosSucedidos'
p4
I3
sS'cromossomo'
p5
(lp6
S'hospedar'
p7
aS'atacar'
p8
aS'copiar'
p9
aS'apagar'
p10
asS'totalComandos'
p11
I4
sba(iparticula
particula
p12
(dp13
g4
I4
sg5
(lp14
g8
ag9
aS'transferir'
p15
ag10
ag7
asg11
I5
sba(iparticula
particula
p16
(dp17
g4
I4
sg5
(lp18
g8
ag9
ag15
ag10
ag7
asg11
I5
sba(iparticula
particula
p19
(dp20
g4
I3
sg5
(lp21
g7
ag8
ag9
ag10
asg11
I4
sba(iparticula
particula
p22
(dp23
g4
I4
sg5
(lp24
g8
ag9
ag15
ag10
ag7
asg11
I5
sba(iparticula
particula
p25
(dp26
g4
I3
sg5
(lp27
g7
ag8
ag9
ag10
asg11
I4
sba(iparticula
particula
p28
(dp29
g4
I2
sg5
(lp30
g8
ag9
ag10
asg11
I3
sba(iparticula
particula
p31
(dp32
g4
I2
sg5
g30
sg11
I3
sba(iparticula
particula
p33
(dp34
g4
I2
sg5
g30
sg11
I3
sba(iparticula
particula
p35
(dp36
g4
I2
sg5
g30
sg11
I3
sba.