(lp1
(iparticula
particula
p2
(dp3
S'totalComandosSucedidos'
p4
I0
sS'cromossomo'
p5
(lp6
S'hospedar'
p7
aS'atacar'
p8
aS'copiar'
p9
aS'apagar'
p10
asS'totalComandos'
p11
I0
sba(iparticula
particula
p12
(dp13
g4
I0
sg5
(lp14
g8
ag9
aS'transferir'
p15
ag10
ag7
asg11
I0
sba(iparticula
particula
p16
(dp17
g4
I0
sg5
(lp18
g8
ag9
ag15
ag10
ag7
asg11
I0
sba(iparticula
particula
p19
(dp20
g4
I0
sg5
(lp21
g7
ag8
ag9
ag10
asg11
I0
sba(iparticula
particula
p22
(dp23
g4
I0
sg5
(lp24
g8
ag9
ag15
ag10
ag7
asg11
I0
sba(iparticula
particula
p25
(dp26
g4
I0
sg5
(lp27
S'desligar'
p28
asg11
I0
sba(iparticula
particula
p29
(dp30
g4
I0
sg5
(lp31
g7
ag8
ag9
ag10
asg11
I0
sba(iparticula
particula
p32
(dp33
g4
I0
sg5
(lp34
g28
asg11
I0
sba(iparticula
particula
p35
(dp36
g4
I0
sg5
(lp37
g8
ag9
ag10
asg11
I0
sba(iparticula
particula
p38
(dp39
g4
I0
sg5
(lp40
g28
asg11
I0
sba(iparticula
particula
p41
(dp42
g4
I0
sg5
g34
sg11
I0
sba(iparticula
particula
p43
(dp44
g4
I0
sg5
g37
sg11
I0
sba(iparticula
particula
p45
(dp46
g4
I0
sg5
g40
sg11
I0
sba(iparticula
particula
p47
(dp48
g4
I0
sg5
g34
sg11
I0
sba(iparticula
particula
p49
(dp50
g4
I0
sg5
g37
sg11
I0
sba(iparticula
particula
p51
(dp52
g4
I0
sg5
g40
sg11
I0
sba(iparticula
particula
p53
(dp54
g4
I0
sg5
g34
sg11
I0
sba(iparticula
particula
p55
(dp56
g4
I0
sg5
g37
sg11
I0
sba(iparticula
particula
p57
(dp58
g4
I0
sg5
g40
sg11
I0
sba(iparticula
particula
p59
(dp60
g4
I0
sg5
g34
sg11
I0
sba.