(lp1
(iparticula
particula
p2
(dp3
S'totalComandosSucedidos'
p4
I0
sS'cromossomo'
p5
(lp6
S'hospedar'
p7
aS'atacar'
p8
aS'copiar'
p9
aS'apagar'
p10
asS'totalComandos'
p11
I0
sba(iparticula
particula
p12
(dp13
g4
I0
sg5
(lp14
S'desligar'
p15
asg11
I0
sba(iparticula
particula
p16
(dp17
g4
I0
sg5
(lp18
g15
asg11
I0
sba(iparticula
particula
p19
(dp20
g4
I0
sg5
(lp21
g15
asg11
I0
sba(iparticula
particula
p22
(dp23
g4
I0
sg5
(lp24
g15
asg11
I0
sba(iparticula
particula
p25
(dp26
g4
I0
sg5
(lp27
g15
asg11
I0
sba(iparticula
particula
p28
(dp29
g4
I0
sg5
(lp30
g15
asg11
I0
sba(iparticula
particula
p31
(dp32
g4
I0
sg5
(lp33
g7
ag8
ag9
ag10
asg11
I0
sba(iparticula
particula
p34
(dp35
g4
I0
sg5
(lp36
g8
ag9
ag10
asg11
I0
sba(iparticula
particula
p37
(dp38
g4
I0
sg5
(lp39
g8
ag9
ag10
asg11
I0
sba(iparticula
particula
p40
(dp41
g4
I0
sg5
g33
sg11
I0
sba(iparticula
particula
p42
(dp43
g4
I0
sg5
g36
sg11
I0
sba(iparticula
particula
p44
(dp45
g4
I0
sg5
g39
sg11
I0
sba(iparticula
particula
p46
(dp47
g4
I0
sg5
g33
sg11
I0
sba(iparticula
particula
p48
(dp49
g4
I0
sg5
g36
sg11
I0
sba(iparticula
particula
p50
(dp51
g4
I0
sg5
g39
sg11
I0
sba(iparticula
particula
p52
(dp53
g4
I0
sg5
g33
sg11
I0
sba(iparticula
particula
p54
(dp55
g4
I0
sg5
g36
sg11
I0
sba(iparticula
particula
p56
(dp57
g4
I0
sg5
g39
sg11
I0
sba(iparticula
particula
p58
(dp59
g4
I0
sg5
g33
sg11
I0
sba.